target datalayout = "e-m:e-p270:32:32-p271:32:32-p272:64:64-i64:64-i128:128-f80:128-n8:16:32:64-S128"
target triple = "x86_64-pc-linux-gnu"

%"struct.cv::dnn::dnn4_v20241223::detail::NetImplBase" = type { i32, i32, i32 }

@_ZN2cv3dnn14dnn4_v20241223L11g_networkIdE = internal global i32 0, align 4

; Function Attrs: mustprogress uwtable
define hidden void @_ZN2cv3dnn14dnn4_v202412236detail11NetImplBaseC2Ev(ptr noundef nonnull align 4 dereferenceable(12) %0) unnamed_addr #4 align 2 {
  %2 = alloca ptr, align 8
  %3 = alloca i32, align 4
  %4 = alloca i32, align 4
  store ptr %0, ptr %2, align 8, !tbaa !3
  %5 = load ptr, ptr %2, align 8
  %6 = getelementptr inbounds nuw %"struct.cv::dnn::dnn4_v20241223::detail::NetImplBase", ptr %5, i32 0, i32 0
  store i32 1, ptr %3, align 4, !tbaa !8
  %7 = load i32, ptr %3, align 4
  %8 = atomicrmw add ptr @_ZN2cv3dnn14dnn4_v20241223L11g_networkIdE, i32 %7 acq_rel, align 4
  store i32 %8, ptr %4, align 4
  %9 = load i32, ptr %4, align 4, !tbaa !8
  store i32 %9, ptr %6, align 4, !tbaa !10
  %10 = getelementptr inbounds nuw %"struct.cv::dnn::dnn4_v20241223::detail::NetImplBase", ptr %5, i32 0, i32 1
  store i32 0, ptr %10, align 4, !tbaa !12
  %11 = getelementptr inbounds nuw %"struct.cv::dnn::dnn4_v20241223::detail::NetImplBase", ptr %5, i32 0, i32 2
  %12 = call noundef i64 @_ZN2cv3dnn14dnn4_v2024122325getParam_DNN_NETWORK_DUMPEv()
  %13 = trunc i64 %12 to i32
  store i32 %13, ptr %11, align 4, !tbaa !13
  ret void
}