; Function Attrs: mustprogress uwtable
define hidden void @_ZN2cv3dnn14dnn4_v202412236detail11NetImplBaseC2Ev(ptr noundef nonnull writeonly align 4 captures(none) dereferenceable(12) initializes((0, 12)) %0) unnamed_addr #3 align 2 {
  %2 = atomicrmw add ptr @_ZN2cv3dnn14dnn4_v20241223L11g_networkIdE, i32 1 acq_rel, align 4
  store i32 %2, ptr %0, align 4, !tbaa !3
  %3 = getelementptr inbounds nuw i8, ptr %0, i64 4
  store i32 0, ptr %3, align 4, !tbaa !8
  %4 = getelementptr inbounds nuw i8, ptr %0, i64 8
  %5 = tail call noundef i64 @_ZN2cv3dnn14dnn4_v2024122325getParam_DNN_NETWORK_DUMPEv()
  %6 = trunc i64 %5 to i32
  store i32 %6, ptr %4, align 4, !tbaa !9
  ret void
}